; Function Attrs: mustprogress nofree norecurse nosync nounwind willreturn memory(argmem: read) uwtable
define dso_local i64 @hdr_size_of_equivalent_value_range(ptr nocapture noundef readonly %h, i64 noundef %value) local_unnamed_addr #0 {
entry:
  %sub_bucket_mask.i = getelementptr inbounds i8, ptr %h, i64 32
  %0 = load i64, ptr %sub_bucket_mask.i, align 8
  %or.i = or i64 %0, %value
  %1 = tail call i64 @llvm.ctlz.i64(i64 %or.i, i1 true), !range !5
  %cast.i.i = trunc i64 %1 to i32
  %unit_magnitude.i = getelementptr inbounds i8, ptr %h, i64 16
  %2 = load i32, ptr %unit_magnitude.i, align 8
  %sub_bucket_half_count_magnitude.i = getelementptr inbounds i8, ptr %h, i64 24
  %3 = load i32, ptr %sub_bucket_half_count_magnitude.i, align 8
  %4 = add i32 %2, %3
  %5 = add i32 %4, %cast.i.i
  %reass.sub = sub i32 %2, %5
  %add.i = add i32 %reass.sub, 63
  %sh_prom.i = zext nneg i32 %add.i to i64
  %shr.i = ashr i64 %value, %sh_prom.i
  %conv.i = trunc i64 %shr.i to i32
  %sub_bucket_count = getelementptr inbounds i8, ptr %h, i64 40
  %6 = load i32, ptr %sub_bucket_count, align 8
  %cmp.not = icmp sle i32 %6, %conv.i
  %add = zext i1 %cmp.not to i32
  %add3 = add i32 %add.i, %add
  %sh_prom = zext nneg i32 %add3 to i64
  %shl = shl nuw i64 1, %sh_prom
  ret i64 %shl
}